                              1 ;--------------------------------------------------------
                              2 ; File Created by SDCC : free open source ANSI-C Compiler
                              3 ; Version 3.6.0 #9615 (Linux)
                              4 ;--------------------------------------------------------
                              5 	.module Snek
                              6 	.optsdcc -mgbz80
                              7 	
                              8 ;--------------------------------------------------------
                              9 ; Public variables in this module
                             10 ;--------------------------------------------------------
                             11 	.globl _main
                             12 	.globl _move_sprite
                             13 	.globl _set_sprite_tile
                             14 	.globl _set_sprite_data
                             15 	.globl _joypad
                             16 	.globl _delay
                             17 	.globl _rxpos
                             18 	.globl _lxpos
                             19 	.globl _lypos
                             20 	.globl _face
                             21 ;--------------------------------------------------------
                             22 ; ram data
                             23 ;--------------------------------------------------------
                             24 	.area _DATA
   0000                      25 _face::
   0000                      26 	.ds 64
   0040                      27 _lypos::
   0040                      28 	.ds 2
   0042                      29 _lxpos::
   0042                      30 	.ds 2
   0044                      31 _rxpos::
   0044                      32 	.ds 2
                             33 ;--------------------------------------------------------
                             34 ; absolute external ram data
                             35 ;--------------------------------------------------------
                             36 	.area _DABS (ABS)
                             37 ;--------------------------------------------------------
                             38 ; global & static initialisations
                             39 ;--------------------------------------------------------
                             40 	.area _HOME
                             41 	.area _GSINIT
                             42 	.area _GSFINAL
                             43 	.area _GSINIT
                             44 ;face.c:26: unsigned char face[] =
   0000 21r00r00             45 	ld	hl,#_face
   0003 36 7F                46 	ld	(hl),#0x7f
   0005 21r01r00             47 	ld	hl,#(_face + 0x0001)
   0008 36 7F                48 	ld	(hl),#0x7f
   000A 21r02r00             49 	ld	hl,#(_face + 0x0002)
   000D 36 80                50 	ld	(hl),#0x80
   000F 21r03r00             51 	ld	hl,#(_face + 0x0003)
   0012 36 80                52 	ld	(hl),#0x80
   0014 21r04r00             53 	ld	hl,#(_face + 0x0004)
   0017 36 80                54 	ld	(hl),#0x80
   0019 21r05r00             55 	ld	hl,#(_face + 0x0005)
   001C 36 80                56 	ld	(hl),#0x80
   001E 21r06r00             57 	ld	hl,#(_face + 0x0006)
   0021 36 98                58 	ld	(hl),#0x98
   0023 21r07r00             59 	ld	hl,#(_face + 0x0007)
   0026 36 98                60 	ld	(hl),#0x98
   0028 21r08r00             61 	ld	hl,#(_face + 0x0008)
   002B 36 98                62 	ld	(hl),#0x98
   002D 21r09r00             63 	ld	hl,#(_face + 0x0009)
   0030 36 98                64 	ld	(hl),#0x98
   0032 21r0Ar00             65 	ld	hl,#(_face + 0x000a)
   0035 36 98                66 	ld	(hl),#0x98
   0037 21r0Br00             67 	ld	hl,#(_face + 0x000b)
   003A 36 98                68 	ld	(hl),#0x98
   003C 21r0Cr00             69 	ld	hl,#(_face + 0x000c)
   003F 36 98                70 	ld	(hl),#0x98
   0041 21r0Dr00             71 	ld	hl,#(_face + 0x000d)
   0044 36 98                72 	ld	(hl),#0x98
   0046 21r0Er00             73 	ld	hl,#(_face + 0x000e)
   0049 36 98                74 	ld	(hl),#0x98
   004B 21r0Fr00             75 	ld	hl,#(_face + 0x000f)
   004E 36 98                76 	ld	(hl),#0x98
   0050 21r10r00             77 	ld	hl,#(_face + 0x0010)
   0053 36 80                78 	ld	(hl),#0x80
   0055 21r11r00             79 	ld	hl,#(_face + 0x0011)
   0058 36 80                80 	ld	(hl),#0x80
   005A 21r12r00             81 	ld	hl,#(_face + 0x0012)
   005D 36 80                82 	ld	(hl),#0x80
   005F 21r13r00             83 	ld	hl,#(_face + 0x0013)
   0062 36 80                84 	ld	(hl),#0x80
   0064 21r14r00             85 	ld	hl,#(_face + 0x0014)
   0067 36 80                86 	ld	(hl),#0x80
   0069 21r15r00             87 	ld	hl,#(_face + 0x0015)
   006C 36 80                88 	ld	(hl),#0x80
   006E 21r16r00             89 	ld	hl,#(_face + 0x0016)
   0071 36 9F                90 	ld	(hl),#0x9f
   0073 21r17r00             91 	ld	hl,#(_face + 0x0017)
   0076 36 9F                92 	ld	(hl),#0x9f
   0078 21r18r00             93 	ld	hl,#(_face + 0x0018)
   007B 36 9F                94 	ld	(hl),#0x9f
   007D 21r19r00             95 	ld	hl,#(_face + 0x0019)
   0080 36 9F                96 	ld	(hl),#0x9f
   0082 21r1Ar00             97 	ld	hl,#(_face + 0x001a)
   0085 36 80                98 	ld	(hl),#0x80
   0087 21r1Br00             99 	ld	hl,#(_face + 0x001b)
   008A 36 80               100 	ld	(hl),#0x80
   008C 21r1Cr00            101 	ld	hl,#(_face + 0x001c)
   008F 36 80               102 	ld	(hl),#0x80
   0091 21r1Dr00            103 	ld	hl,#(_face + 0x001d)
   0094 36 80               104 	ld	(hl),#0x80
   0096 21r1Er00            105 	ld	hl,#(_face + 0x001e)
   0099 36 7F               106 	ld	(hl),#0x7f
   009B 21r1Fr00            107 	ld	hl,#(_face + 0x001f)
   009E 36 7F               108 	ld	(hl),#0x7f
   00A0 21r20r00            109 	ld	hl,#(_face + 0x0020)
   00A3 36 FE               110 	ld	(hl),#0xfe
   00A5 21r21r00            111 	ld	hl,#(_face + 0x0021)
   00A8 36 FE               112 	ld	(hl),#0xfe
   00AA 21r22r00            113 	ld	hl,#(_face + 0x0022)
   00AD 36 01               114 	ld	(hl),#0x01
   00AF 21r23r00            115 	ld	hl,#(_face + 0x0023)
   00B2 36 01               116 	ld	(hl),#0x01
   00B4 21r24r00            117 	ld	hl,#(_face + 0x0024)
   00B7 36 01               118 	ld	(hl),#0x01
   00B9 21r25r00            119 	ld	hl,#(_face + 0x0025)
   00BC 36 01               120 	ld	(hl),#0x01
   00BE 21r26r00            121 	ld	hl,#(_face + 0x0026)
   00C1 36 19               122 	ld	(hl),#0x19
   00C3 21r27r00            123 	ld	hl,#(_face + 0x0027)
   00C6 36 19               124 	ld	(hl),#0x19
   00C8 21r28r00            125 	ld	hl,#(_face + 0x0028)
   00CB 36 19               126 	ld	(hl),#0x19
   00CD 21r29r00            127 	ld	hl,#(_face + 0x0029)
   00D0 36 19               128 	ld	(hl),#0x19
   00D2 21r2Ar00            129 	ld	hl,#(_face + 0x002a)
   00D5 36 19               130 	ld	(hl),#0x19
   00D7 21r2Br00            131 	ld	hl,#(_face + 0x002b)
   00DA 36 19               132 	ld	(hl),#0x19
   00DC 21r2Cr00            133 	ld	hl,#(_face + 0x002c)
   00DF 36 19               134 	ld	(hl),#0x19
   00E1 21r2Dr00            135 	ld	hl,#(_face + 0x002d)
   00E4 36 19               136 	ld	(hl),#0x19
   00E6 21r2Er00            137 	ld	hl,#(_face + 0x002e)
   00E9 36 19               138 	ld	(hl),#0x19
   00EB 21r2Fr00            139 	ld	hl,#(_face + 0x002f)
   00EE 36 19               140 	ld	(hl),#0x19
   00F0 21r30r00            141 	ld	hl,#(_face + 0x0030)
   00F3 36 01               142 	ld	(hl),#0x01
   00F5 21r31r00            143 	ld	hl,#(_face + 0x0031)
   00F8 36 01               144 	ld	(hl),#0x01
   00FA 21r32r00            145 	ld	hl,#(_face + 0x0032)
   00FD 36 01               146 	ld	(hl),#0x01
   00FF 21r33r00            147 	ld	hl,#(_face + 0x0033)
   0102 36 01               148 	ld	(hl),#0x01
   0104 21r34r00            149 	ld	hl,#(_face + 0x0034)
   0107 36 01               150 	ld	(hl),#0x01
   0109 21r35r00            151 	ld	hl,#(_face + 0x0035)
   010C 36 01               152 	ld	(hl),#0x01
   010E 21r36r00            153 	ld	hl,#(_face + 0x0036)
   0111 36 F9               154 	ld	(hl),#0xf9
   0113 21r37r00            155 	ld	hl,#(_face + 0x0037)
   0116 36 F9               156 	ld	(hl),#0xf9
   0118 21r38r00            157 	ld	hl,#(_face + 0x0038)
   011B 36 F9               158 	ld	(hl),#0xf9
   011D 21r39r00            159 	ld	hl,#(_face + 0x0039)
   0120 36 F9               160 	ld	(hl),#0xf9
   0122 21r3Ar00            161 	ld	hl,#(_face + 0x003a)
   0125 36 01               162 	ld	(hl),#0x01
   0127 21r3Br00            163 	ld	hl,#(_face + 0x003b)
   012A 36 01               164 	ld	(hl),#0x01
   012C 21r3Cr00            165 	ld	hl,#(_face + 0x003c)
   012F 36 01               166 	ld	(hl),#0x01
   0131 21r3Dr00            167 	ld	hl,#(_face + 0x003d)
   0134 36 01               168 	ld	(hl),#0x01
   0136 21r3Er00            169 	ld	hl,#(_face + 0x003e)
   0139 36 FE               170 	ld	(hl),#0xfe
   013B 21r3Fr00            171 	ld	hl,#(_face + 0x003f)
   013E 36 FE               172 	ld	(hl),#0xfe
                            173 ;Snek.c:4: int lypos = 75 ;
   0140 21r40r00            174 	ld	hl,#_lypos
   0143 36 4B               175 	ld	(hl),#0x4b
   0145 23                  176 	inc	hl
   0146 36 00               177 	ld	(hl),#0x00
                            178 ;Snek.c:5: int lxpos = 75;
   0148 21r42r00            179 	ld	hl,#_lxpos
   014B 36 4B               180 	ld	(hl),#0x4b
   014D 23                  181 	inc	hl
   014E 36 00               182 	ld	(hl),#0x00
                            183 ;Snek.c:6: int rxpos = 82;
   0150 21r44r00            184 	ld	hl,#_rxpos
   0153 36 52               185 	ld	(hl),#0x52
   0155 23                  186 	inc	hl
   0156 36 00               187 	ld	(hl),#0x00
                            188 ;--------------------------------------------------------
                            189 ; Home
                            190 ;--------------------------------------------------------
                            191 	.area _HOME
                            192 	.area _HOME
                            193 ;--------------------------------------------------------
                            194 ; code
                            195 ;--------------------------------------------------------
                            196 	.area _CODE
                            197 ;Snek.c:8: void main(){
                            198 ;	---------------------------------
                            199 ; Function main
                            200 ; ---------------------------------
   0000                     201 _main::
                            202 ;Snek.c:9: SPRITES_8x16;
   0000 11 40 FF            203 	ld	de,#0xff40
   0003 1A                  204 	ld	a,(de)
   0004 4F                  205 	ld	c,a
   0005 06 00               206 	ld	b,#0x00
   0007 79                  207 	ld	a,c
   0008 CB D7               208 	set	2, a
   000A 4F                  209 	ld	c,a
   000B 21 40 FF            210 	ld	hl,#0xff40
   000E 71                  211 	ld	(hl),c
                            212 ;Snek.c:10: set_sprite_data(0,8,face);
   000F 21r00r00            213 	ld	hl,#_face
   0012 E5                  214 	push	hl
   0013 21 00 08            215 	ld	hl,#0x0800
   0016 E5                  216 	push	hl
   0017 CDr00r00            217 	call	_set_sprite_data
   001A E8 04               218 	add	sp, #4
                            219 ;Snek.c:11: set_sprite_tile(0,0);
   001C 21 00 00            220 	ld	hl,#0x0000
   001F E5                  221 	push	hl
   0020 CDr00r00            222 	call	_set_sprite_tile
   0023 E8 02               223 	add	sp, #2
                            224 ;Snek.c:12: move_sprite(0,75,75);
   0025 21 4B 4B            225 	ld	hl,#0x4b4b
   0028 E5                  226 	push	hl
   0029 AF                  227 	xor	a, a
   002A F5                  228 	push	af
   002B 33                  229 	inc	sp
   002C CDr00r00            230 	call	_move_sprite
   002F E8 03               231 	add	sp, #3
                            232 ;Snek.c:13: set_sprite_tile(1, 2);
   0031 21 01 02            233 	ld	hl,#0x0201
   0034 E5                  234 	push	hl
   0035 CDr00r00            235 	call	_set_sprite_tile
   0038 E8 02               236 	add	sp, #2
                            237 ;Snek.c:14: move_sprite(1, 75 + 8, 75);
   003A 21 53 4B            238 	ld	hl,#0x4b53
   003D E5                  239 	push	hl
   003E 3E 01               240 	ld	a,#0x01
   0040 F5                  241 	push	af
   0041 33                  242 	inc	sp
   0042 CDr00r00            243 	call	_move_sprite
   0045 E8 03               244 	add	sp, #3
                            245 ;Snek.c:15: SHOW_SPRITES;
   0047 11 40 FF            246 	ld	de,#0xff40
   004A 1A                  247 	ld	a,(de)
   004B 4F                  248 	ld	c,a
   004C 06 00               249 	ld	b,#0x00
   004E 79                  250 	ld	a,c
   004F CB CF               251 	set	1, a
   0051 4F                  252 	ld	c,a
   0052 21 40 FF            253 	ld	hl,#0xff40
   0055 71                  254 	ld	(hl),c
                            255 ;Snek.c:17: while(1){
   0056                     256 00109$:
                            257 ;Snek.c:18: switch (joypad()) {
   0056 CDr00r00            258 	call	_joypad
                            259 ;Snek.c:34: move_sprite(0,lxpos - 8,lypos);
   0059 21r40r00            260 	ld	hl,#_lypos
   005C 46                  261 	ld	b,(hl)
   005D 21r42r00            262 	ld	hl,#_lxpos
   0060 4E                  263 	ld	c,(hl)
                            264 ;Snek.c:18: switch (joypad()) {
   0061 7B                  265 	ld	a,e
   0062 3D                  266 	dec	a
   0063 CAr4Ar01            267 	jp	Z,00104$
   0066 7B                  268 	ld	a,e
   0067 D6 02               269 	sub	a, #0x02
   0069 CAr02r01            270 	jp	Z,00103$
                            271 ;Snek.c:20: move_sprite(0,lxpos,lypos - 8);
   006C 21r40r00            272 	ld	hl,#_lypos
   006F 4E                  273 	ld	c,(hl)
   0070 21r42r00            274 	ld	hl,#_lxpos
   0073 46                  275 	ld	b,(hl)
                            276 ;Snek.c:18: switch (joypad()) {
   0074 7B                  277 	ld	a,e
   0075 FE 04               278 	cp	a,#0x04
   0077 28 0C               279 	jr	Z,00101$
   0079 FE 08               280 	cp	a,##0x08
   007B CArC3r00            281 	jp	Z,00102$
   007E D6 10               282 	sub	a, #0x10
   0080 CAr94r01            283 	jp	Z,00105$
   0083 18 D1               284 	jr	00109$
                            285 ;Snek.c:19: case J_UP:
   0085                     286 00101$:
                            287 ;Snek.c:20: move_sprite(0,lxpos,lypos - 8);
   0085 79                  288 	ld	a,c
   0086 C6 F8               289 	add	a,#0xf8
   0088 F5                  290 	push	af
   0089 33                  291 	inc	sp
   008A C5                  292 	push	bc
   008B 33                  293 	inc	sp
   008C AF                  294 	xor	a, a
   008D F5                  295 	push	af
   008E 33                  296 	inc	sp
   008F CDr00r00            297 	call	_move_sprite
   0092 E8 03               298 	add	sp, #3
                            299 ;Snek.c:21: move_sprite(1,rxpos,lypos - 8);
   0094 21r40r00            300 	ld	hl,#_lypos
   0097 7E                  301 	ld	a,(hl)
   0098 C6 F8               302 	add	a,#0xf8
   009A 47                  303 	ld	b,a
   009B 21r44r00            304 	ld	hl,#_rxpos
   009E 56                  305 	ld	d,(hl)
   009F C5                  306 	push	bc
   00A0 33                  307 	inc	sp
   00A1 D5                  308 	push	de
   00A2 33                  309 	inc	sp
   00A3 3E 01               310 	ld	a,#0x01
   00A5 F5                  311 	push	af
   00A6 33                  312 	inc	sp
   00A7 CDr00r00            313 	call	_move_sprite
   00AA E8 03               314 	add	sp, #3
                            315 ;Snek.c:22: lypos -= 8;
   00AC 21r40r00            316 	ld	hl,#_lypos
   00AF 7E                  317 	ld	a,(hl)
   00B0 C6 F8               318 	add	a,#0xf8
   00B2 22                  319 	ld	(hl+),a
   00B3 7E                  320 	ld	a,(hl)
   00B4 CE FF               321 	adc	a,#0xff
   00B6 77                  322 	ld	(hl),a
                            323 ;Snek.c:23: delay(300);
   00B7 21 2C 01            324 	ld	hl,#0x012c
   00BA E5                  325 	push	hl
   00BB CDr00r00            326 	call	_delay
   00BE E8 02               327 	add	sp, #2
                            328 ;Snek.c:24: break;
   00C0 C3r56r00            329 	jp	00109$
                            330 ;Snek.c:26: case J_DOWN:
   00C3                     331 00102$:
                            332 ;Snek.c:27: move_sprite(0,lxpos,lypos + 8);
   00C3 79                  333 	ld	a,c
   00C4 C6 08               334 	add	a, #0x08
   00C6 57                  335 	ld	d,a
   00C7 D5                  336 	push	de
   00C8 33                  337 	inc	sp
   00C9 C5                  338 	push	bc
   00CA 33                  339 	inc	sp
   00CB AF                  340 	xor	a, a
   00CC F5                  341 	push	af
   00CD 33                  342 	inc	sp
   00CE CDr00r00            343 	call	_move_sprite
   00D1 E8 03               344 	add	sp, #3
                            345 ;Snek.c:28: move_sprite(1,rxpos,lypos + 8);
   00D3 21r40r00            346 	ld	hl,#_lypos
   00D6 7E                  347 	ld	a,(hl)
   00D7 C6 08               348 	add	a, #0x08
   00D9 57                  349 	ld	d,a
   00DA 21r44r00            350 	ld	hl,#_rxpos
   00DD 46                  351 	ld	b,(hl)
   00DE D5                  352 	push	de
   00DF 33                  353 	inc	sp
   00E0 C5                  354 	push	bc
   00E1 33                  355 	inc	sp
   00E2 3E 01               356 	ld	a,#0x01
   00E4 F5                  357 	push	af
   00E5 33                  358 	inc	sp
   00E6 CDr00r00            359 	call	_move_sprite
   00E9 E8 03               360 	add	sp, #3
                            361 ;Snek.c:29: lypos += 8;
   00EB 21r40r00            362 	ld	hl,#_lypos
   00EE 7E                  363 	ld	a,(hl)
   00EF C6 08               364 	add	a, #0x08
   00F1 22                  365 	ld	(hl+),a
   00F2 7E                  366 	ld	a,(hl)
   00F3 CE 00               367 	adc	a, #0x00
   00F5 77                  368 	ld	(hl),a
                            369 ;Snek.c:30: delay(300);
   00F6 21 2C 01            370 	ld	hl,#0x012c
   00F9 E5                  371 	push	hl
   00FA CDr00r00            372 	call	_delay
   00FD E8 02               373 	add	sp, #2
                            374 ;Snek.c:31: break;
   00FF C3r56r00            375 	jp	00109$
                            376 ;Snek.c:33: case J_LEFT:
   0102                     377 00103$:
                            378 ;Snek.c:34: move_sprite(0,lxpos - 8,lypos);
   0102 79                  379 	ld	a,c
   0103 C6 F8               380 	add	a,#0xf8
   0105 C5                  381 	push	bc
   0106 33                  382 	inc	sp
   0107 F5                  383 	push	af
   0108 33                  384 	inc	sp
   0109 AF                  385 	xor	a, a
   010A F5                  386 	push	af
   010B 33                  387 	inc	sp
   010C CDr00r00            388 	call	_move_sprite
   010F E8 03               389 	add	sp, #3
                            390 ;Snek.c:35: move_sprite(1,rxpos - 8,lypos);
   0111 21r40r00            391 	ld	hl,#_lypos
   0114 46                  392 	ld	b,(hl)
   0115 21r44r00            393 	ld	hl,#_rxpos
   0118 7E                  394 	ld	a,(hl)
   0119 C6 F8               395 	add	a,#0xf8
   011B C5                  396 	push	bc
   011C 33                  397 	inc	sp
   011D F5                  398 	push	af
   011E 33                  399 	inc	sp
   011F 3E 01               400 	ld	a,#0x01
   0121 F5                  401 	push	af
   0122 33                  402 	inc	sp
   0123 CDr00r00            403 	call	_move_sprite
   0126 E8 03               404 	add	sp, #3
                            405 ;Snek.c:36: lxpos -= 8;
   0128 21r42r00            406 	ld	hl,#_lxpos
   012B 7E                  407 	ld	a,(hl)
   012C C6 F8               408 	add	a,#0xf8
   012E 22                  409 	ld	(hl+),a
   012F 7E                  410 	ld	a,(hl)
   0130 CE FF               411 	adc	a,#0xff
   0132 77                  412 	ld	(hl),a
                            413 ;Snek.c:37: rxpos -= 8;
   0133 21r44r00            414 	ld	hl,#_rxpos
   0136 7E                  415 	ld	a,(hl)
   0137 C6 F8               416 	add	a,#0xf8
   0139 22                  417 	ld	(hl+),a
   013A 7E                  418 	ld	a,(hl)
   013B CE FF               419 	adc	a,#0xff
   013D 77                  420 	ld	(hl),a
                            421 ;Snek.c:38: delay(300);
   013E 21 2C 01            422 	ld	hl,#0x012c
   0141 E5                  423 	push	hl
   0142 CDr00r00            424 	call	_delay
   0145 E8 02               425 	add	sp, #2
                            426 ;Snek.c:39: break;
   0147 C3r56r00            427 	jp	00109$
                            428 ;Snek.c:41: case J_RIGHT:
   014A                     429 00104$:
                            430 ;Snek.c:42: move_sprite(0,lxpos + 8,lypos);
   014A 79                  431 	ld	a,c
   014B C6 08               432 	add	a, #0x08
   014D 57                  433 	ld	d,a
   014E C5                  434 	push	bc
   014F 33                  435 	inc	sp
   0150 D5                  436 	push	de
   0151 33                  437 	inc	sp
   0152 AF                  438 	xor	a, a
   0153 F5                  439 	push	af
   0154 33                  440 	inc	sp
   0155 CDr00r00            441 	call	_move_sprite
   0158 E8 03               442 	add	sp, #3
                            443 ;Snek.c:43: move_sprite(1,rxpos + 8,lypos);
   015A 21r40r00            444 	ld	hl,#_lypos
   015D 56                  445 	ld	d,(hl)
   015E 21r44r00            446 	ld	hl,#_rxpos
   0161 7E                  447 	ld	a,(hl)
   0162 C6 08               448 	add	a, #0x08
   0164 47                  449 	ld	b,a
   0165 D5                  450 	push	de
   0166 33                  451 	inc	sp
   0167 C5                  452 	push	bc
   0168 33                  453 	inc	sp
   0169 3E 01               454 	ld	a,#0x01
   016B F5                  455 	push	af
   016C 33                  456 	inc	sp
   016D CDr00r00            457 	call	_move_sprite
   0170 E8 03               458 	add	sp, #3
                            459 ;Snek.c:44: lxpos += 8;
   0172 21r42r00            460 	ld	hl,#_lxpos
   0175 7E                  461 	ld	a,(hl)
   0176 C6 08               462 	add	a, #0x08
   0178 22                  463 	ld	(hl+),a
   0179 7E                  464 	ld	a,(hl)
   017A CE 00               465 	adc	a, #0x00
   017C 77                  466 	ld	(hl),a
                            467 ;Snek.c:45: rxpos += 8;
   017D 21r44r00            468 	ld	hl,#_rxpos
   0180 7E                  469 	ld	a,(hl)
   0181 C6 08               470 	add	a, #0x08
   0183 22                  471 	ld	(hl+),a
   0184 7E                  472 	ld	a,(hl)
   0185 CE 00               473 	adc	a, #0x00
   0187 77                  474 	ld	(hl),a
                            475 ;Snek.c:46: delay(300);
   0188 21 2C 01            476 	ld	hl,#0x012c
   018B E5                  477 	push	hl
   018C CDr00r00            478 	call	_delay
   018F E8 02               479 	add	sp, #2
                            480 ;Snek.c:47: break;
   0191 C3r56r00            481 	jp	00109$
                            482 ;Snek.c:49: case J_A:
   0194                     483 00105$:
                            484 ;Snek.c:50: set_sprite_tile(1,6);
   0194 21 01 06            485 	ld	hl,#0x0601
   0197 E5                  486 	push	hl
   0198 CDr00r00            487 	call	_set_sprite_tile
   019B E8 02               488 	add	sp, #2
                            489 ;Snek.c:51: delay(300);
   019D 21 2C 01            490 	ld	hl,#0x012c
   01A0 E5                  491 	push	hl
   01A1 CDr00r00            492 	call	_delay
   01A4 E8 02               493 	add	sp, #2
                            494 ;Snek.c:52: set_sprite_tile(1,2);
   01A6 21 01 02            495 	ld	hl,#0x0201
   01A9 E5                  496 	push	hl
   01AA CDr00r00            497 	call	_set_sprite_tile
   01AD E8 02               498 	add	sp, #2
                            499 ;Snek.c:53: break;
   01AF C3r56r00            500 	jp	00109$
                            501 ;Snek.c:57: }
   01B2 C9                  502 	ret
                            503 	.area _CODE
                            504 	.area _CABS (ABS)
